target datalayout = "e-m:e-p270:32:32-p271:32:32-p272:64:64-i64:64-i128:128-f80:128-n8:16:32:64-S128"
target triple = "x86_64-unknown-linux-gnu"

%"struct.std::array" = type { [64 x i8] }
%"class.folly::Range" = type { ptr, ptr }
%"class.std::__cxx11::basic_string" = type { %"struct.std::__cxx11::basic_string<char>::_Alloc_hider", i64, %union.anon }
%"struct.std::__cxx11::basic_string<char>::_Alloc_hider" = type { ptr }
%union.anon = type { i64, [8 x i8] }

@_ZN8facebook5velox8encodingL17kBase64UrlCharsetE = internal constant %"struct.std::array" { [64 x i8] c"ABCDEFGHIJKLMNOPQRSTUVWXYZabcdefghijklmnopqrstuvwxyz0123456789-_" }, align 1

; Function Attrs: mustprogress uwtable
define void @_ZN8facebook5velox8encoding6Base649encodeUrlB5cxx11EN5folly5RangeIPKcEE(ptr noalias sret(%"class.std::__cxx11::basic_string") align 8 %agg.result, ptr %text.coerce0, ptr %text.coerce1) #1 align 2 {
entry:
  %result.ptr = alloca ptr, align 8
  %text = alloca %"class.folly::Range", align 8
  store ptr %agg.result, ptr %result.ptr, align 8
  %0 = getelementptr inbounds { ptr, ptr }, ptr %text, i32 0, i32 0
  store ptr %text.coerce0, ptr %0, align 8
  %1 = getelementptr inbounds { ptr, ptr }, ptr %text, i32 0, i32 1
  store ptr %text.coerce1, ptr %1, align 8
  call void @_ZN8facebook5velox8encoding6Base6410encodeImplIN5folly5RangeIPKcEEEENSt7__cxx1112basic_stringIcSt11char_traitsIcESaIcEEERKT_RKSt5arrayIcLm64EEb(ptr sret(%"class.std::__cxx11::basic_string") align 8 %agg.result, ptr noundef nonnull align 8 dereferenceable(16) %text, ptr noundef nonnull align 1 dereferenceable(64) @_ZN8facebook5velox8encodingL17kBase64UrlCharsetE, i1 noundef zeroext false)
  ret void
}

; Function Attrs: mustprogress nounwind uwtable
define linkonce_odr void @_ZN5folly5RangeIPKcEC2ES2_m(ptr noundef nonnull align 8 dereferenceable(16) %this, ptr noundef %start, i64 noundef %size) unnamed_addr #0 comdat align 2 {
entry:
  %this.addr = alloca ptr, align 8
  %start.addr = alloca ptr, align 8
  %size.addr = alloca i64, align 8
  store ptr %this, ptr %this.addr, align 8
  store ptr %start, ptr %start.addr, align 8
  store i64 %size, ptr %size.addr, align 8
  %this1 = load ptr, ptr %this.addr, align 8
  %b_ = getelementptr inbounds %"class.folly::Range", ptr %this1, i32 0, i32 0
  %0 = load ptr, ptr %start.addr, align 8
  store ptr %0, ptr %b_, align 8
  %e_ = getelementptr inbounds %"class.folly::Range", ptr %this1, i32 0, i32 1
  %1 = load ptr, ptr %start.addr, align 8
  %2 = load i64, ptr %size.addr, align 8
  %add.ptr = getelementptr inbounds i8, ptr %1, i64 %2
  store ptr %add.ptr, ptr %e_, align 8
  ret void
}

; Function Attrs: mustprogress uwtable
define void @_ZN8facebook5velox8encoding6Base649encodeUrlB5cxx11EPKcm(ptr noalias sret(%"class.std::__cxx11::basic_string") align 8 %agg.result, ptr noundef %data, i64 noundef %len) #1 align 2 {
entry:
  %result.ptr = alloca ptr, align 8
  %data.addr = alloca ptr, align 8
  %len.addr = alloca i64, align 8
  %agg.tmp = alloca %"class.folly::Range", align 8
  store ptr %agg.result, ptr %result.ptr, align 8
  store ptr %data, ptr %data.addr, align 8
  store i64 %len, ptr %len.addr, align 8
  %0 = load ptr, ptr %data.addr, align 8
  %1 = load i64, ptr %len.addr, align 8
  call void @_ZN5folly5RangeIPKcEC2ES2_m(ptr noundef nonnull align 8 dereferenceable(16) %agg.tmp, ptr noundef %0, i64 noundef %1)
  %2 = getelementptr inbounds { ptr, ptr }, ptr %agg.tmp, i32 0, i32 0
  %3 = load ptr, ptr %2, align 8
  %4 = getelementptr inbounds { ptr, ptr }, ptr %agg.tmp, i32 0, i32 1
  %5 = load ptr, ptr %4, align 8
  call void @_ZN8facebook5velox8encoding6Base649encodeUrlB5cxx11EN5folly5RangeIPKcEE(ptr sret(%"class.std::__cxx11::basic_string") align 8 %agg.result, ptr %3, ptr %5)
  ret void
}